target datalayout = "e-m:e-p270:32:32-p271:32:32-p272:64:64-i64:64-i128:128-f80:128-n8:16:32:64-S128"
target triple = "x86_64-pc-linux-gnu"

%struct.pmix_data_buffer = type { ptr, ptr, ptr, i64, i64 }
%struct.pmix_byte_object = type { ptr, i64 }

; Function Attrs: nounwind uwtable
define i32 @PMIx_Data_load(ptr noundef %0, ptr noundef %1) #0 {
  %3 = alloca i32, align 4
  %4 = alloca ptr, align 8
  %5 = alloca ptr, align 8
  store ptr %0, ptr %4, align 8, !tbaa !8
  store ptr %1, ptr %5, align 8, !tbaa !120
  %6 = load ptr, ptr %4, align 8, !tbaa !8
  %7 = icmp eq ptr null, %6
  br i1 %7, label %8, label %9

8:                                                ; preds = %2
  store i32 -27, ptr %3, align 4
  br label %46

9:                                                ; preds = %2
  %10 = load ptr, ptr %4, align 8, !tbaa !8
  call void @PMIx_Data_buffer_destruct(ptr noundef %10)
  %11 = load ptr, ptr %4, align 8, !tbaa !8
  call void @PMIx_Data_buffer_construct(ptr noundef %11)
  %12 = load ptr, ptr %5, align 8, !tbaa !120
  %13 = icmp eq ptr null, %12
  br i1 %13, label %14, label %15

14:                                               ; preds = %9
  store i32 0, ptr %3, align 4
  br label %46

15:                                               ; preds = %9
  %16 = load ptr, ptr %5, align 8, !tbaa !120
  %17 = getelementptr inbounds nuw %struct.pmix_byte_object, ptr %16, i32 0, i32 0
  %18 = load ptr, ptr %17, align 8, !tbaa !122
  %19 = load ptr, ptr %4, align 8, !tbaa !8
  %20 = getelementptr inbounds nuw %struct.pmix_data_buffer, ptr %19, i32 0, i32 0
  store ptr %18, ptr %20, align 8, !tbaa !61
  %21 = load ptr, ptr %4, align 8, !tbaa !8
  %22 = getelementptr inbounds nuw %struct.pmix_data_buffer, ptr %21, i32 0, i32 0
  %23 = load ptr, ptr %22, align 8, !tbaa !61
  %24 = load ptr, ptr %5, align 8, !tbaa !120
  %25 = getelementptr inbounds nuw %struct.pmix_byte_object, ptr %24, i32 0, i32 1
  %26 = load i64, ptr %25, align 8, !tbaa !124
  %27 = getelementptr inbounds nuw i8, ptr %23, i64 %26
  %28 = load ptr, ptr %4, align 8, !tbaa !8
  %29 = getelementptr inbounds nuw %struct.pmix_data_buffer, ptr %28, i32 0, i32 1
  store ptr %27, ptr %29, align 8, !tbaa !64
  %30 = load ptr, ptr %4, align 8, !tbaa !8
  %31 = getelementptr inbounds nuw %struct.pmix_data_buffer, ptr %30, i32 0, i32 0
  %32 = load ptr, ptr %31, align 8, !tbaa !61
  %33 = load ptr, ptr %4, align 8, !tbaa !8
  %34 = getelementptr inbounds nuw %struct.pmix_data_buffer, ptr %33, i32 0, i32 2
  store ptr %32, ptr %34, align 8, !tbaa !66
  %35 = load ptr, ptr %5, align 8, !tbaa !120
  %36 = getelementptr inbounds nuw %struct.pmix_byte_object, ptr %35, i32 0, i32 1
  %37 = load i64, ptr %36, align 8, !tbaa !124
  %38 = load ptr, ptr %4, align 8, !tbaa !8
  %39 = getelementptr inbounds nuw %struct.pmix_data_buffer, ptr %38, i32 0, i32 4
  store i64 %37, ptr %39, align 8, !tbaa !70
  %40 = load ptr, ptr %4, align 8, !tbaa !8
  %41 = getelementptr inbounds nuw %struct.pmix_data_buffer, ptr %40, i32 0, i32 3
  store i64 %37, ptr %41, align 8, !tbaa !68
  %42 = load ptr, ptr %5, align 8, !tbaa !120
  %43 = getelementptr inbounds nuw %struct.pmix_byte_object, ptr %42, i32 0, i32 0
  store ptr null, ptr %43, align 8, !tbaa !122
  %44 = load ptr, ptr %5, align 8, !tbaa !120
  %45 = getelementptr inbounds nuw %struct.pmix_byte_object, ptr %44, i32 0, i32 1
  store i64 0, ptr %45, align 8, !tbaa !124
  store i32 0, ptr %3, align 4
  br label %46

46:                                               ; preds = %15, %14, %8
  %47 = load i32, ptr %3, align 4
  ret i32 %47
}