; Function Attrs: nounwind uwtable
define range(i32 -27, 1) i32 @PMIx_Data_load(ptr noundef %0, ptr noundef captures(address_is_null) %1) local_unnamed_addr #0 {
  %3 = icmp eq ptr %0, null
  br i1 %3, label %15, label %4

4:                                                ; preds = %2
  tail call void @PMIx_Data_buffer_destruct(ptr noundef nonnull %0) #13
  tail call void @PMIx_Data_buffer_construct(ptr noundef nonnull %0) #13
  %5 = icmp eq ptr %1, null
  br i1 %5, label %15, label %6

6:                                                ; preds = %4
  %7 = load ptr, ptr %1, align 8, !tbaa !104
  store ptr %7, ptr %0, align 8, !tbaa !58
  %8 = getelementptr inbounds nuw i8, ptr %1, i64 8
  %9 = load i64, ptr %8, align 8, !tbaa !106
  %10 = getelementptr inbounds nuw i8, ptr %7, i64 %9
  %11 = getelementptr inbounds nuw i8, ptr %0, i64 8
  store ptr %10, ptr %11, align 8, !tbaa !61
  %12 = getelementptr inbounds nuw i8, ptr %0, i64 16
  store ptr %7, ptr %12, align 8, !tbaa !63
  %13 = getelementptr inbounds nuw i8, ptr %0, i64 32
  store i64 %9, ptr %13, align 8, !tbaa !67
  %14 = getelementptr inbounds nuw i8, ptr %0, i64 24
  store i64 %9, ptr %14, align 8, !tbaa !65
  tail call void @llvm.memset.p0.i64(ptr noundef nonnull align 8 dereferenceable(16) %1, i8 0, i64 16, i1 false)
  br label %15

15:                                               ; preds = %4, %2, %6
  %.0 = phi i32 [ 0, %6 ], [ -27, %2 ], [ 0, %4 ]
  ret i32 %.0
}